target datalayout = "e-m:e-p270:32:32-p271:32:32-p272:64:64-i64:64-i128:128-f80:128-n8:16:32:64-S128"
target triple = "x86_64-pc-linux-gnu"

%struct.RelationData = type { %struct.RelFileLocator, ptr, i32, i32, i8, i8, i8, i8, i8, i32, i32, i32, i32, ptr, ptr, i32, %struct.LockInfoData, ptr, ptr, ptr, ptr, ptr, i8, ptr, ptr, ptr, ptr, ptr, ptr, i32, ptr, i8, ptr, ptr, i32, i8, i32, ptr, i8, ptr, ptr, ptr, ptr, ptr, ptr, ptr, i32, ptr, ptr, ptr, ptr, ptr, ptr, ptr, ptr, ptr, ptr, ptr, ptr, ptr, ptr, ptr, ptr, ptr, ptr, ptr, i32, i8, ptr }
%struct.RelFileLocator = type { i32, i32, i32 }
%struct.LockInfoData = type { %struct.LockRelId }
%struct.LockRelId = type { i32, i32 }
%struct.IndexTupleData = type { %struct.ItemPointerData, i16 }
%struct.ItemPointerData = type { %struct.BlockIdData, i16 }
%struct.BlockIdData = type { i16, i16 }
%struct.PageHeaderData = type { %struct.PageXLogRecPtr, i16, i16, i16, i16, i16, i16, i32, [0 x %struct.ItemIdData] }
%struct.PageXLogRecPtr = type { i32, i32 }
%struct.ItemIdData = type { i32 }
%struct.BTPageOpaqueData = type { i32, i32, i32, i16, i16 }
%struct.FormData_pg_class = type { i32, %struct.nameData, i32, i32, i32, i32, i32, i32, i32, i32, float, i32, i32, i8, i8, i8, i8, i16, i16, i8, i8, i8, i8, i8, i8, i8, i8, i32, i32, i32 }
%struct.nameData = type { [64 x i8] }

@.str.1 = private unnamed_addr constant [11 x i8] c"nbtutils.c\00", align 1
@.str.12 = private unnamed_addr constant [73 x i8] c"cannot insert oversized tuple of size %zu on internal page of index \22%s\22\00", align 1
@__func__._bt_check_third_page = private unnamed_addr constant [21 x i8] c"_bt_check_third_page\00", align 1
@.str.13 = private unnamed_addr constant [71 x i8] c"index row size %zu exceeds btree version %u maximum %zu for index \22%s\22\00", align 1
@.str.14 = private unnamed_addr constant [53 x i8] c"Index row references tuple (%u,%u) in relation \22%s\22.\00", align 1
@.str.15 = private unnamed_addr constant [141 x i8] c"Values larger than 1/3 of a buffer page cannot be indexed.\0AConsider a function index of an MD5 hash of the value, or use full text indexing.\00", align 1

; Function Attrs: inlinehint nounwind uwtable
define internal i32 @BlockIdGetBlockNumber(ptr noundef %0) #2 {
  %2 = alloca ptr, align 8
  store ptr %0, ptr %2, align 8
  %3 = load ptr, ptr %2, align 8
  %4 = getelementptr inbounds nuw %struct.BlockIdData, ptr %3, i32 0, i32 0
  %5 = load i16, ptr %4, align 2
  %6 = zext i16 %5 to i32
  %7 = shl i32 %6, 16
  %8 = load ptr, ptr %2, align 8
  %9 = getelementptr inbounds nuw %struct.BlockIdData, ptr %8, i32 0, i32 1
  %10 = load i16, ptr %9, align 2
  %11 = zext i16 %10 to i32
  %12 = or i32 %7, %11
  ret i32 %12
}

; Function Attrs: inlinehint nounwind uwtable
define internal zeroext i16 @ItemPointerGetOffsetNumberNoCheck(ptr noundef %0) #2 {
  %2 = alloca ptr, align 8
  store ptr %0, ptr %2, align 8
  %3 = load ptr, ptr %2, align 8
  %4 = getelementptr inbounds nuw %struct.ItemPointerData, ptr %3, i32 0, i32 1
  %5 = load i16, ptr %4, align 2
  ret i16 %5
}

; Function Attrs: inlinehint nounwind uwtable
define internal i32 @ItemPointerGetBlockNumberNoCheck(ptr noundef %0) #2 {
  %2 = alloca ptr, align 8
  store ptr %0, ptr %2, align 8
  %3 = load ptr, ptr %2, align 8
  %4 = getelementptr inbounds nuw %struct.ItemPointerData, ptr %3, i32 0, i32 0
  %5 = call i32 @BlockIdGetBlockNumber(ptr noundef %4)
  ret i32 %5
}

; Function Attrs: inlinehint nounwind uwtable
define internal zeroext i16 @ItemPointerGetOffsetNumber(ptr noundef %0) #2 {
  %2 = alloca ptr, align 8
  store ptr %0, ptr %2, align 8
  %3 = load ptr, ptr %2, align 8
  %4 = call zeroext i16 @ItemPointerGetOffsetNumberNoCheck(ptr noundef %3)
  ret i16 %4
}

; Function Attrs: inlinehint nounwind uwtable
define internal i32 @ItemPointerGetBlockNumber(ptr noundef %0) #2 {
  %2 = alloca ptr, align 8
  store ptr %0, ptr %2, align 8
  %3 = load ptr, ptr %2, align 8
  %4 = call i32 @ItemPointerGetBlockNumberNoCheck(ptr noundef %3)
  ret i32 %4
}

; Function Attrs: inlinehint nounwind uwtable
define internal void @PageValidateSpecialPointer(ptr noundef %0) #2 {
  %2 = alloca ptr, align 8
  store ptr %0, ptr %2, align 8
  ret void
}

; Function Attrs: inlinehint nounwind uwtable
define internal i64 @PageGetPageSize(ptr noundef %0) #2 {
  %2 = alloca ptr, align 8
  store ptr %0, ptr %2, align 8
  %3 = load ptr, ptr %2, align 8
  %4 = getelementptr inbounds nuw %struct.PageHeaderData, ptr %3, i32 0, i32 6
  %5 = load i16, ptr %4, align 2
  %6 = zext i16 %5 to i32
  %7 = and i32 %6, 65280
  %8 = sext i32 %7 to i64
  ret i64 %8
}

; Function Attrs: inlinehint nounwind uwtable
define internal i64 @IndexTupleSize(ptr noundef %0) #2 {
  %2 = alloca ptr, align 8
  store ptr %0, ptr %2, align 8
  %3 = load ptr, ptr %2, align 8
  %4 = getelementptr inbounds nuw %struct.IndexTupleData, ptr %3, i32 0, i32 1
  %5 = load i16, ptr %4, align 2
  %6 = zext i16 %5 to i32
  %7 = and i32 %6, 8191
  %8 = sext i32 %7 to i64
  ret i64 %8
}

; Function Attrs: nounwind uwtable
define dso_local void @_bt_check_third_page(ptr noundef %0, ptr noundef %1, i1 noundef zeroext %2, ptr noundef %3, ptr noundef %4) #0 {
  %6 = alloca ptr, align 8
  %7 = alloca ptr, align 8
  %8 = alloca i8, align 1
  %9 = alloca ptr, align 8
  %10 = alloca ptr, align 8
  %11 = alloca i64, align 8
  %12 = alloca ptr, align 8
  %13 = alloca i32, align 4
  store ptr %0, ptr %6, align 8
  store ptr %1, ptr %7, align 8
  %14 = zext i1 %2 to i8
  store i8 %14, ptr %8, align 1
  store ptr %3, ptr %9, align 8
  store ptr %4, ptr %10, align 8
  call void @llvm.lifetime.start.p0(i64 8, ptr %11) #8
  call void @llvm.lifetime.start.p0(i64 8, ptr %12) #8
  %15 = load ptr, ptr %10, align 8
  %16 = call i64 @IndexTupleSize(ptr noundef %15)
  %17 = add i64 %16, 7
  %18 = and i64 %17, -8
  store i64 %18, ptr %11, align 8
  %19 = load i64, ptr %11, align 8
  %20 = load ptr, ptr %9, align 8
  %21 = call i64 @PageGetPageSize(ptr noundef %20)
  %22 = sub i64 %21, 40
  %23 = sub i64 %22, 16
  %24 = udiv i64 %23, 3
  %25 = and i64 %24, -8
  %26 = sub i64 %25, 8
  %27 = icmp ule i64 %19, %26
  br i1 %27, label %28, label %29

28:                                               ; preds = %5
  store i32 1, ptr %13, align 4
  br label %139

29:                                               ; preds = %5
  %30 = load i8, ptr %8, align 1, !range !4, !noundef !5
  %31 = trunc i8 %30 to i1
  br i1 %31, label %42, label %32

32:                                               ; preds = %29
  %33 = load i64, ptr %11, align 8
  %34 = load ptr, ptr %9, align 8
  %35 = call i64 @PageGetPageSize(ptr noundef %34)
  %36 = sub i64 %35, 40
  %37 = sub i64 %36, 16
  %38 = udiv i64 %37, 3
  %39 = and i64 %38, -8
  %40 = icmp ule i64 %33, %39
  br i1 %40, label %41, label %42

41:                                               ; preds = %32
  store i32 1, ptr %13, align 4
  br label %139

42:                                               ; preds = %32, %29
  %43 = load ptr, ptr %9, align 8
  call void @PageValidateSpecialPointer(ptr noundef %43)
  %44 = load ptr, ptr %9, align 8
  %45 = load ptr, ptr %9, align 8
  %46 = getelementptr inbounds nuw %struct.PageHeaderData, ptr %45, i32 0, i32 5
  %47 = load i16, ptr %46, align 4
  %48 = zext i16 %47 to i32
  %49 = sext i32 %48 to i64
  %50 = getelementptr inbounds i8, ptr %44, i64 %49
  store ptr %50, ptr %12, align 8
  %51 = load ptr, ptr %12, align 8
  %52 = getelementptr inbounds nuw %struct.BTPageOpaqueData, ptr %51, i32 0, i32 3
  %53 = load i16, ptr %52, align 4
  %54 = zext i16 %53 to i32
  %55 = and i32 %54, 1
  %56 = icmp ne i32 %55, 0
  br i1 %56, label %75, label %57

57:                                               ; preds = %42
  br label %58

58:                                               ; preds = %57
  br i1 true, label %59, label %61

59:                                               ; preds = %58
  %60 = call zeroext i1 @errstart_cold(i32 noundef 21, ptr noundef null) #9
  br i1 %60, label %63, label %72

61:                                               ; preds = %58
  %62 = call zeroext i1 @errstart(i32 noundef 21, ptr noundef null)
  br i1 %62, label %63, label %72

63:                                               ; preds = %61, %59
  %64 = load i64, ptr %11, align 8
  %65 = load ptr, ptr %6, align 8
  %66 = getelementptr inbounds nuw %struct.RelationData, ptr %65, i32 0, i32 13
  %67 = load ptr, ptr %66, align 8
  %68 = getelementptr inbounds nuw %struct.FormData_pg_class, ptr %67, i32 0, i32 1
  %69 = getelementptr inbounds nuw %struct.nameData, ptr %68, i32 0, i32 0
  %70 = getelementptr inbounds [64 x i8], ptr %69, i64 0, i64 0
  %71 = call i32 (ptr, ...) @errmsg_internal(ptr noundef @.str.12, i64 noundef %64, ptr noundef %70)
  call void @errfinish(ptr noundef @.str.1, i32 noundef 3266, ptr noundef @__func__._bt_check_third_page)
  br label %72

72:                                               ; preds = %63, %61, %59
  unreachable

73:                                               ; No predecessors!
  br label %74

74:                                               ; preds = %73
  br label %75

75:                                               ; preds = %74, %42
  br label %76

76:                                               ; preds = %75
  br i1 true, label %77, label %79

77:                                               ; preds = %76
  %78 = call zeroext i1 @errstart_cold(i32 noundef 21, ptr noundef null) #9
  br i1 %78, label %81, label %136

79:                                               ; preds = %76
  %80 = call zeroext i1 @errstart(i32 noundef 21, ptr noundef null)
  br i1 %80, label %81, label %136

81:                                               ; preds = %79, %77
  %82 = call i32 @errcode(i32 noundef 261)
  %83 = load i64, ptr %11, align 8
  %84 = load i8, ptr %8, align 1, !range !4, !noundef !5
  %85 = trunc i8 %84 to i1
  %86 = select i1 %85, i32 4, i32 3
  %87 = load i8, ptr %8, align 1, !range !4, !noundef !5
  %88 = trunc i8 %87 to i1
  br i1 %88, label %89, label %97

89:                                               ; preds = %81
  %90 = load ptr, ptr %9, align 8
  %91 = call i64 @PageGetPageSize(ptr noundef %90)
  %92 = sub i64 %91, 40
  %93 = sub i64 %92, 16
  %94 = udiv i64 %93, 3
  %95 = and i64 %94, -8
  %96 = sub i64 %95, 8
  br label %104

97:                                               ; preds = %81
  %98 = load ptr, ptr %9, align 8
  %99 = call i64 @PageGetPageSize(ptr noundef %98)
  %100 = sub i64 %99, 40
  %101 = sub i64 %100, 16
  %102 = udiv i64 %101, 3
  %103 = and i64 %102, -8
  br label %104

104:                                              ; preds = %97, %89
  %105 = phi i64 [ %96, %89 ], [ %103, %97 ]
  %106 = load ptr, ptr %6, align 8
  %107 = getelementptr inbounds nuw %struct.RelationData, ptr %106, i32 0, i32 13
  %108 = load ptr, ptr %107, align 8
  %109 = getelementptr inbounds nuw %struct.FormData_pg_class, ptr %108, i32 0, i32 1
  %110 = getelementptr inbounds nuw %struct.nameData, ptr %109, i32 0, i32 0
  %111 = getelementptr inbounds [64 x i8], ptr %110, i64 0, i64 0
  %112 = call i32 (ptr, ...) @errmsg(ptr noundef @.str.13, i64 noundef %83, i32 noundef %86, i64 noundef %105, ptr noundef %111)
  %113 = load ptr, ptr %10, align 8
  %114 = call ptr @BTreeTupleGetHeapTID(ptr noundef %113)
  %115 = call i32 @ItemPointerGetBlockNumber(ptr noundef %114)
  %116 = load ptr, ptr %10, align 8
  %117 = call ptr @BTreeTupleGetHeapTID(ptr noundef %116)
  %118 = call zeroext i16 @ItemPointerGetOffsetNumber(ptr noundef %117)
  %119 = zext i16 %118 to i32
  %120 = load ptr, ptr %7, align 8
  %121 = getelementptr inbounds nuw %struct.RelationData, ptr %120, i32 0, i32 13
  %122 = load ptr, ptr %121, align 8
  %123 = getelementptr inbounds nuw %struct.FormData_pg_class, ptr %122, i32 0, i32 1
  %124 = getelementptr inbounds nuw %struct.nameData, ptr %123, i32 0, i32 0
  %125 = getelementptr inbounds [64 x i8], ptr %124, i64 0, i64 0
  %126 = call i32 (ptr, ...) @errdetail(ptr noundef @.str.14, i32 noundef %115, i32 noundef %119, ptr noundef %125)
  %127 = call i32 (ptr, ...) @errhint(ptr noundef @.str.15)
  %128 = load ptr, ptr %7, align 8
  %129 = load ptr, ptr %6, align 8
  %130 = getelementptr inbounds nuw %struct.RelationData, ptr %129, i32 0, i32 13
  %131 = load ptr, ptr %130, align 8
  %132 = getelementptr inbounds nuw %struct.FormData_pg_class, ptr %131, i32 0, i32 1
  %133 = getelementptr inbounds nuw %struct.nameData, ptr %132, i32 0, i32 0
  %134 = getelementptr inbounds [64 x i8], ptr %133, i64 0, i64 0
  %135 = call i32 @errtableconstraint(ptr noundef %128, ptr noundef %134)
  call void @errfinish(ptr noundef @.str.1, i32 noundef 3283, ptr noundef @__func__._bt_check_third_page)
  br label %136

136:                                              ; preds = %104, %79, %77
  unreachable

137:                                              ; No predecessors!
  br label %138

138:                                              ; preds = %137
  store i32 0, ptr %13, align 4
  br label %139

139:                                              ; preds = %138, %41, %28
  call void @llvm.lifetime.end.p0(i64 8, ptr %12) #8
  call void @llvm.lifetime.end.p0(i64 8, ptr %11) #8
  %140 = load i32, ptr %13, align 4
  switch i32 %140, label %142 [
    i32 0, label %141
    i32 1, label %141
  ]

141:                                              ; preds = %139, %139
  ret void

142:                                              ; preds = %139
  unreachable
}