; Function Attrs: nounwind uwtable
define dso_local void @_bt_check_third_page(ptr noundef readonly captures(none) %0, ptr noundef %1, i1 noundef zeroext %2, ptr noundef readonly captures(none) %3, ptr noundef readonly captures(none) %4) local_unnamed_addr #0 {
  %6 = getelementptr i8, ptr %4, i64 6
  %.val = load i16, ptr %6, align 2
  %7 = and i16 %.val, 8191
  %narrow = add nuw nsw i16 %7, 7
  %8 = and i16 %narrow, 16376
  %9 = zext nneg i16 %8 to i64
  %10 = getelementptr i8, ptr %3, i64 18
  %.val25 = load i16, ptr %10, align 2
  %11 = and i16 %.val25, -256
  %12 = zext i16 %11 to i64
  %13 = add nsw i64 %12, -56
  %14 = udiv i64 %13, 3
  %15 = and i64 %14, 9223372036854775800
  %16 = add nsw i64 %15, -8
  %.not = icmp ult i64 %16, %9
  %.not22 = icmp samesign ult i64 %15, %9
  %or.cond = select i1 %2, i1 true, i1 %.not22
  %or.cond31 = select i1 %.not, i1 %or.cond, i1 false
  br i1 %or.cond31, label %17, label %61

17:                                               ; preds = %5
  %18 = getelementptr inbounds nuw i8, ptr %3, i64 16
  %19 = load i16, ptr %18, align 4
  %20 = zext i16 %19 to i64
  %21 = getelementptr inbounds nuw i8, ptr %3, i64 %20
  %22 = getelementptr inbounds nuw i8, ptr %21, i64 12
  %23 = load i16, ptr %22, align 4
  %24 = and i16 %23, 1
  %.not23 = icmp eq i16 %24, 0
  %25 = tail call zeroext i1 @errstart_cold(i32 noundef 21, ptr noundef null) #15
  tail call void @llvm.assume(i1 %25)
  br i1 %.not23, label %26, label %31

26:                                               ; preds = %17
  %27 = getelementptr inbounds nuw i8, ptr %0, i64 56
  %28 = load ptr, ptr %27, align 8
  %29 = getelementptr inbounds nuw i8, ptr %28, i64 4
  %30 = tail call i32 (ptr, ...) @errmsg_internal(ptr noundef nonnull @.str.12, i64 noundef %9, ptr noundef nonnull %29) #14
  tail call void @errfinish(ptr noundef nonnull @.str.1, i32 noundef 3266, ptr noundef nonnull @__func__._bt_check_third_page) #14
  unreachable

31:                                               ; preds = %17
  %32 = tail call i32 @errcode(i32 noundef 261) #14
  %.val27 = load i16, ptr %10, align 2
  %33 = and i16 %.val27, -256
  %34 = zext i16 %33 to i64
  %35 = add nsw i64 %34, -56
  %36 = udiv i64 %35, 3
  %37 = and i64 %36, 9223372036854775800
  %38 = add nsw i64 %37, -8
  %39 = select i1 %2, i32 4, i32 3
  %40 = select i1 %2, i64 %38, i64 %37
  %41 = getelementptr inbounds nuw i8, ptr %0, i64 56
  %42 = load ptr, ptr %41, align 8
  %43 = getelementptr inbounds nuw i8, ptr %42, i64 4
  %44 = tail call i32 (ptr, ...) @errmsg(ptr noundef nonnull @.str.13, i64 noundef %9, i32 noundef %39, i64 noundef %40, ptr noundef nonnull %43) #14
  %45 = tail call fastcc ptr @BTreeTupleGetHeapTID(ptr noundef nonnull %4)
  %.val29 = load i16, ptr %45, align 2
  %46 = getelementptr i8, ptr %45, i64 2
  %.val30 = load i16, ptr %46, align 2
  %47 = zext i16 %.val29 to i32
  %48 = shl nuw i32 %47, 16
  %49 = zext i16 %.val30 to i32
  %50 = or disjoint i32 %48, %49
  %51 = getelementptr i8, ptr %45, i64 4
  %.val24 = load i16, ptr %51, align 2
  %52 = zext i16 %.val24 to i32
  %53 = getelementptr inbounds nuw i8, ptr %1, i64 56
  %54 = load ptr, ptr %53, align 8
  %55 = getelementptr inbounds nuw i8, ptr %54, i64 4
  %56 = tail call i32 (ptr, ...) @errdetail(ptr noundef nonnull @.str.14, i32 noundef %50, i32 noundef %52, ptr noundef nonnull %55) #14
  %57 = tail call i32 (ptr, ...) @errhint(ptr noundef nonnull @.str.15) #14
  %58 = load ptr, ptr %41, align 8
  %59 = getelementptr inbounds nuw i8, ptr %58, i64 4
  %60 = tail call i32 @errtableconstraint(ptr noundef %1, ptr noundef nonnull %59) #14
  tail call void @errfinish(ptr noundef nonnull @.str.1, i32 noundef 3283, ptr noundef nonnull @__func__._bt_check_third_page) #14
  unreachable

61:                                               ; preds = %5
  ret void
}